; Function Attrs: nounwind uwtable
define hidden zeroext i1 @SDL_SetFloatProperty_REAL(i32 noundef %0, ptr noundef %1, float noundef %2) local_unnamed_addr #0 {
  %4 = tail call noalias dereferenceable_or_null(40) ptr @SDL_calloc_REAL(i64 noundef 1, i64 noundef 40) #7
  %.not = icmp eq ptr %4, null
  br i1 %.not, label %8, label %5

5:                                                ; preds = %3
  store i32 4, ptr %4, align 8
  %6 = getelementptr inbounds nuw i8, ptr %4, i64 8
  store float %2, ptr %6, align 8
  %7 = tail call fastcc zeroext i1 @SDL_PrivateSetProperty(i32 noundef %0, ptr noundef %1, ptr noundef nonnull %4)
  br label %8

8:                                                ; preds = %3, %5
  %.0 = phi i1 [ %7, %5 ], [ false, %3 ]
  ret i1 %.0
}